ccopy_reg
_reconstructor
p0
(c__main__
Cache
p1
c__builtin__
object
p2
Ntp3
Rp4
(dp5
S'status'
p6
S'unpublished'
p7
sS'title'
p8
S'---'
p9
sS'url'
p10
S'https://blog.openshift.com/?p=7407'
p11
sS'checksum'
p12
S'989357cc7c408a3f3d5c5a33eb7ea41b'
p13
sS'created_at'
p14
I1465997716
sS'doctype'
p15
S'article'
p16
sS'updated_at'
p17
I1466022917
sS'post_type'
p18
S'post'
p19
sS'media'
p20
(dp21
S'../../../img/developer/languages/ruby/builders-list.png'
p22
g0
(c__main__
Media
p23
g2
Ntp24
Rp25
(dp26
g10
S'https://blog.openshift.com/wp-content/uploads/builders-list-1.png'
p27
sg12
S'9588041011dbff345670c25c947f80d4'
p28
sS'filename'
p29
S'/Users/mjelen/Projects/discoverycenter/source/developer/languages/ruby/../../../img/developer/languages/ruby/builders-list.png'
p30
sbsS'../../../img/developer/languages/ruby/new-app-overview.png'
p31
g0
(g23
g2
Ntp32
Rp33
(dp34
g10
S'https://blog.openshift.com/wp-content/uploads/new-app-overview-1.png'
p35
sg12
S'baa7b101596b0219744fcdafccacda4b'
p36
sg29
S'/Users/mjelen/Projects/discoverycenter/source/developer/languages/ruby/../../../img/developer/languages/ruby/new-app-overview.png'
p37
sbsS'../../../img/developer/languages/ruby/running-build.png'
p38
g0
(g23
g2
Ntp39
Rp40
(dp41
g10
S'https://blog.openshift.com/wp-content/uploads/running-build-1.png'
p42
sg12
S'49d8d1db78cf97d54da60e0e6cc6ccea'
p43
sg29
S'/Users/mjelen/Projects/discoverycenter/source/developer/languages/ruby/../../../img/developer/languages/ruby/running-build.png'
p44
sbsS'../../../img/developer/languages/ruby/new-app.png'
p45
g0
(g23
g2
Ntp46
Rp47
(dp48
g10
S'https://blog.openshift.com/wp-content/uploads/new-app-1.png'
p49
sg12
S'3c65a75cdd77d260ee536be6dab85809'
p50
sg29
S'/Users/mjelen/Projects/discoverycenter/source/developer/languages/ruby/../../../img/developer/languages/ruby/new-app.png'
p51
sbsS'../../../img/developer/languages/ruby/new-deployment.png'
p52
g0
(g23
g2
Ntp53
Rp54
(dp55
g10
S'https://blog.openshift.com/wp-content/uploads/new-deployment-1.png'
p56
sg12
S'31a4e58aaf3aba29c4d36ef00f1097a1'
p57
sg29
S'/Users/mjelen/Projects/discoverycenter/source/developer/languages/ruby/../../../img/developer/languages/ruby/new-deployment.png'
p58
sbsS'../../../img/developer/languages/ruby/start-build.png'
p59
g0
(g23
g2
Ntp60
Rp61
(dp62
g10
S'https://blog.openshift.com/wp-content/uploads/start-build-1.png'
p63
sg12
S'6c66f100ac7f897deb41447c99c55773'
p64
sg29
S'/Users/mjelen/Projects/discoverycenter/source/developer/languages/ruby/../../../img/developer/languages/ruby/start-build.png'
p65
sbsS'../../../img/developer/languages/ruby/finished-build.png'
p66
g0
(g23
g2
Ntp67
Rp68
(dp69
g10
S'https://blog.openshift.com/wp-content/uploads/finished-build-1.png'
p70
sg12
S'cfef735209f5ca3e228d65fe781bf570'
p71
sg29
S'/Users/mjelen/Projects/discoverycenter/source/developer/languages/ruby/../../../img/developer/languages/ruby/finished-build.png'
p72
sbsS'../../../img/developer/languages/ruby/new-build.png'
p73
g0
(g23
g2
Ntp74
Rp75
(dp76
g10
S'https://blog.openshift.com/wp-content/uploads/new-build-1.png'
p77
sg12
S'd9a1bdd4dcfd4aca77db5feb607f1a11'
p78
sg29
S'/Users/mjelen/Projects/discoverycenter/source/developer/languages/ruby/../../../img/developer/languages/ruby/new-build.png'
p79
sbssS'id'
p80
I7407
sS'categories'
p81
(lp82
S'News'
p83
asb.